ccopy_reg
_reconstructor
p0
(cgoogle.oauth2.credentials
Credentials
p1
c__builtin__
object
p2
Ntp3
Rp4
(dp5
S'_token_uri'
p6
Vhttps://oauth2.googleapis.com/token
p7
sS'_scopes'
p8
(lp9
S'https://www.googleapis.com/auth/tasks.readonly'
p10
asS'_id_token'
p11
NsS'token'
p12
Vya29.GluuBjIo0VI0TjIRlc6dRzLQPYmVfWdiJQ_0-wG_vuKXX47KFoXZRdvebaL7cxEFkVodwZ5gBLkksEifqslz3A0CRgJGlUiCwhNW5YkMGvOMcQokmoOEyYP8WB8x
p13
sS'_refresh_token'
p14
V1/TZ1Cb3jOLztGzNToX9uqTdG8tciueXHiY53aFN1aePZJeaABCCwdaF0LSWrNQriJ
p15
sS'_client_secret'
p16
VheKiGM0SCyBA5rSU5jP3CSSl
p17
sS'_client_id'
p18
V860205813485-ibcu3n5egbg4qlp7luec8390o2utst9v.apps.googleusercontent.com
p19
sS'expiry'
p20
cdatetime
datetime
p21
(S'\x07\xe3\x02\x0c\x17\x074\x01\xc6\xfb'
p22
tp23
Rp24
sb.