ccopy_reg
_reconstructor
p0
(cgoogle.oauth2.credentials
Credentials
p1
c__builtin__
object
p2
Ntp3
Rp4
(dp5
S'_token_uri'
p6
Vhttps://oauth2.googleapis.com/token
p7
sS'_scopes'
p8
(lp9
S'https://www.googleapis.com/auth/calendar.readonly'
p10
asS'_id_token'
p11
NsS'token'
p12
Vya29.GlyuBuEucKKl-hbwEydkA7d9yqUX8PM5AqvXAxQ2gCxxz4sIL1isi1S9zkt5nb1eh4ziSSmUTzLzkK2RZzc0T2vHmRQ-c9aomgGXE__Xx8WbZlRKMKwki4RSvEFoww
p13
sS'_refresh_token'
p14
V1/iM5SD31s_LfZTUllWVbMNKxq2DvKjJjropC7-7PW4A8
p15
sS'_client_secret'
p16
VzjwbshO_CtW_rlvHjpMKVyrX
p17
sS'_client_id'
p18
V262103142973-4p704sl3usal8ue6k6mpqtcukodl4gg1.apps.googleusercontent.com
p19
sS'expiry'
p20
cdatetime
datetime
p21
(S'\x07\xe3\x02\x0c\x17\x040\x02\xafr'
p22
tp23
Rp24
sb.